target datalayout = "e-m:e-p270:32:32-p271:32:32-p272:64:64-i64:64-i128:128-f80:128-n8:16:32:64-S128"
target triple = "x86_64-pc-linux-gnu"

%struct.pointf_s = type { double, double }

; Function Attrs: inlinehint nounwind uwtable
define internal { double, double } @sub_pointf(double %0, double %1, double %2, double %3) #3 {
  %5 = alloca %struct.pointf_s, align 8
  %6 = alloca %struct.pointf_s, align 8
  %7 = alloca %struct.pointf_s, align 8
  %8 = getelementptr inbounds nuw { double, double }, ptr %6, i32 0, i32 0
  store double %0, ptr %8, align 8
  %9 = getelementptr inbounds nuw { double, double }, ptr %6, i32 0, i32 1
  store double %1, ptr %9, align 8
  %10 = getelementptr inbounds nuw { double, double }, ptr %7, i32 0, i32 0
  store double %2, ptr %10, align 8
  %11 = getelementptr inbounds nuw { double, double }, ptr %7, i32 0, i32 1
  store double %3, ptr %11, align 8
  %12 = getelementptr inbounds nuw %struct.pointf_s, ptr %6, i32 0, i32 0
  %13 = load double, ptr %12, align 8, !tbaa !57
  %14 = getelementptr inbounds nuw %struct.pointf_s, ptr %7, i32 0, i32 0
  %15 = load double, ptr %14, align 8, !tbaa !57
  %16 = fsub double %13, %15
  %17 = getelementptr inbounds nuw %struct.pointf_s, ptr %5, i32 0, i32 0
  store double %16, ptr %17, align 8, !tbaa !57
  %18 = getelementptr inbounds nuw %struct.pointf_s, ptr %6, i32 0, i32 1
  %19 = load double, ptr %18, align 8, !tbaa !58
  %20 = getelementptr inbounds nuw %struct.pointf_s, ptr %7, i32 0, i32 1
  %21 = load double, ptr %20, align 8, !tbaa !58
  %22 = fsub double %19, %21
  %23 = getelementptr inbounds nuw %struct.pointf_s, ptr %5, i32 0, i32 1
  store double %22, ptr %23, align 8, !tbaa !58
  %24 = load { double, double }, ptr %5, align 8
  ret { double, double } %24
}

; Function Attrs: nounwind uwtable
define internal { double, double } @arrow_type_tee(ptr noundef %0, double %1, double %2, double %3, double %4, double noundef %5, double noundef %6, i32 noundef %7) #0 {
  %9 = alloca %struct.pointf_s, align 8
  %10 = alloca %struct.pointf_s, align 8
  %11 = alloca %struct.pointf_s, align 8
  %12 = alloca ptr, align 8
  %13 = alloca double, align 8
  %14 = alloca double, align 8
  %15 = alloca i32, align 4
  %16 = alloca %struct.pointf_s, align 8
  %17 = alloca %struct.pointf_s, align 8
  %18 = alloca %struct.pointf_s, align 8
  %19 = alloca [4 x %struct.pointf_s], align 16
  %20 = alloca double, align 8
  %21 = alloca double, align 8
  %22 = alloca %struct.pointf_s, align 8
  %23 = alloca double, align 8
  %24 = alloca double, align 8
  %25 = alloca %struct.pointf_s, align 8
  %26 = alloca %struct.pointf_s, align 8
  %27 = alloca %struct.pointf_s, align 8
  %28 = alloca %struct.pointf_s, align 8
  %29 = alloca %struct.pointf_s, align 8
  %30 = getelementptr inbounds nuw { double, double }, ptr %10, i32 0, i32 0
  store double %1, ptr %30, align 8
  %31 = getelementptr inbounds nuw { double, double }, ptr %10, i32 0, i32 1
  store double %2, ptr %31, align 8
  %32 = getelementptr inbounds nuw { double, double }, ptr %11, i32 0, i32 0
  store double %3, ptr %32, align 8
  %33 = getelementptr inbounds nuw { double, double }, ptr %11, i32 0, i32 1
  store double %4, ptr %33, align 8
  store ptr %0, ptr %12, align 8, !tbaa !73
  store double %5, ptr %13, align 8, !tbaa !53
  store double %6, ptr %14, align 8, !tbaa !53
  store i32 %7, ptr %15, align 4, !tbaa !10
  call void @llvm.lifetime.start.p0(i64 16, ptr %16) #9
  call void @llvm.lifetime.start.p0(i64 16, ptr %17) #9
  call void @llvm.lifetime.start.p0(i64 16, ptr %18) #9
  call void @llvm.lifetime.start.p0(i64 64, ptr %19) #9
  %34 = getelementptr inbounds nuw %struct.pointf_s, ptr %11, i32 0, i32 1
  %35 = load double, ptr %34, align 8, !tbaa !58
  %36 = fneg double %35
  %37 = getelementptr inbounds nuw %struct.pointf_s, ptr %18, i32 0, i32 0
  store double %36, ptr %37, align 8, !tbaa !57
  %38 = getelementptr inbounds nuw %struct.pointf_s, ptr %11, i32 0, i32 0
  %39 = load double, ptr %38, align 8, !tbaa !57
  %40 = getelementptr inbounds nuw %struct.pointf_s, ptr %18, i32 0, i32 1
  store double %39, ptr %40, align 8, !tbaa !58
  %41 = getelementptr inbounds nuw %struct.pointf_s, ptr %10, i32 0, i32 0
  %42 = load double, ptr %41, align 8, !tbaa !57
  %43 = getelementptr inbounds nuw %struct.pointf_s, ptr %11, i32 0, i32 0
  %44 = load double, ptr %43, align 8, !tbaa !57
  %45 = fadd double %42, %44
  %46 = getelementptr inbounds nuw %struct.pointf_s, ptr %9, i32 0, i32 0
  store double %45, ptr %46, align 8, !tbaa !57
  %47 = getelementptr inbounds nuw %struct.pointf_s, ptr %10, i32 0, i32 1
  %48 = load double, ptr %47, align 8, !tbaa !58
  %49 = getelementptr inbounds nuw %struct.pointf_s, ptr %11, i32 0, i32 1
  %50 = load double, ptr %49, align 8, !tbaa !58
  %51 = fadd double %48, %50
  %52 = getelementptr inbounds nuw %struct.pointf_s, ptr %9, i32 0, i32 1
  store double %51, ptr %52, align 8, !tbaa !58
  %53 = getelementptr inbounds nuw %struct.pointf_s, ptr %10, i32 0, i32 0
  %54 = load double, ptr %53, align 8, !tbaa !57
  %55 = getelementptr inbounds nuw %struct.pointf_s, ptr %11, i32 0, i32 0
  %56 = load double, ptr %55, align 8, !tbaa !57
  %57 = call double @llvm.fmuladd.f64(double %56, double 2.000000e-01, double %54)
  %58 = getelementptr inbounds nuw %struct.pointf_s, ptr %16, i32 0, i32 0
  store double %57, ptr %58, align 8, !tbaa !57
  %59 = getelementptr inbounds nuw %struct.pointf_s, ptr %10, i32 0, i32 1
  %60 = load double, ptr %59, align 8, !tbaa !58
  %61 = getelementptr inbounds nuw %struct.pointf_s, ptr %11, i32 0, i32 1
  %62 = load double, ptr %61, align 8, !tbaa !58
  %63 = call double @llvm.fmuladd.f64(double %62, double 2.000000e-01, double %60)
  %64 = getelementptr inbounds nuw %struct.pointf_s, ptr %16, i32 0, i32 1
  store double %63, ptr %64, align 8, !tbaa !58
  %65 = getelementptr inbounds nuw %struct.pointf_s, ptr %10, i32 0, i32 0
  %66 = load double, ptr %65, align 8, !tbaa !57
  %67 = getelementptr inbounds nuw %struct.pointf_s, ptr %11, i32 0, i32 0
  %68 = load double, ptr %67, align 8, !tbaa !57
  %69 = call double @llvm.fmuladd.f64(double %68, double 6.000000e-01, double %66)
  %70 = getelementptr inbounds nuw %struct.pointf_s, ptr %17, i32 0, i32 0
  store double %69, ptr %70, align 8, !tbaa !57
  %71 = getelementptr inbounds nuw %struct.pointf_s, ptr %10, i32 0, i32 1
  %72 = load double, ptr %71, align 8, !tbaa !58
  %73 = getelementptr inbounds nuw %struct.pointf_s, ptr %11, i32 0, i32 1
  %74 = load double, ptr %73, align 8, !tbaa !58
  %75 = call double @llvm.fmuladd.f64(double %74, double 6.000000e-01, double %72)
  %76 = getelementptr inbounds nuw %struct.pointf_s, ptr %17, i32 0, i32 1
  store double %75, ptr %76, align 8, !tbaa !58
  call void @llvm.lifetime.start.p0(i64 8, ptr %20) #9
  %77 = getelementptr inbounds nuw %struct.pointf_s, ptr %11, i32 0, i32 0
  %78 = load double, ptr %77, align 8, !tbaa !57
  %79 = getelementptr inbounds nuw %struct.pointf_s, ptr %11, i32 0, i32 1
  %80 = load double, ptr %79, align 8, !tbaa !58
  %81 = call double @hypot(double noundef %78, double noundef %80) #9, !tbaa !10
  store double %81, ptr %20, align 8, !tbaa !53
  call void @llvm.lifetime.start.p0(i64 8, ptr %21) #9
  %82 = load double, ptr %14, align 8, !tbaa !53
  %83 = fdiv double %82, 2.000000e+00
  %84 = load double, ptr %20, align 8, !tbaa !53
  %85 = call double @llvm.fmuladd.f64(double -2.000000e-01, double %84, double %83)
  store double %85, ptr %21, align 8, !tbaa !53
  %86 = load double, ptr %20, align 8, !tbaa !53
  %87 = fcmp ogt double %86, 0.000000e+00
  br i1 %87, label %88, label %176

88:                                               ; preds = %8
  %89 = load double, ptr %21, align 8, !tbaa !53
  %90 = fcmp ogt double %89, 0.000000e+00
  br i1 %90, label %91, label %176

91:                                               ; preds = %88
  call void @llvm.lifetime.start.p0(i64 16, ptr %22) #9
  %92 = getelementptr inbounds nuw %struct.pointf_s, ptr %22, i32 0, i32 0
  %93 = getelementptr inbounds nuw %struct.pointf_s, ptr %11, i32 0, i32 0
  %94 = load double, ptr %93, align 8, !tbaa !57
  %95 = fneg double %94
  store double %95, ptr %92, align 8, !tbaa !57
  %96 = getelementptr inbounds nuw %struct.pointf_s, ptr %22, i32 0, i32 1
  %97 = getelementptr inbounds nuw %struct.pointf_s, ptr %11, i32 0, i32 1
  %98 = load double, ptr %97, align 8, !tbaa !58
  %99 = fneg double %98
  store double %99, ptr %96, align 8, !tbaa !58
  call void @llvm.lifetime.start.p0(i64 8, ptr %23) #9
  %100 = getelementptr inbounds nuw %struct.pointf_s, ptr %22, i32 0, i32 0
  %101 = load double, ptr %100, align 8, !tbaa !57
  %102 = getelementptr inbounds nuw %struct.pointf_s, ptr %22, i32 0, i32 0
  %103 = load double, ptr %102, align 8, !tbaa !57
  %104 = getelementptr inbounds nuw %struct.pointf_s, ptr %22, i32 0, i32 1
  %105 = load double, ptr %104, align 8, !tbaa !58
  %106 = call double @hypot(double noundef %103, double noundef %105) #9, !tbaa !10
  %107 = fdiv double %101, %106
  store double %107, ptr %23, align 8, !tbaa !53
  call void @llvm.lifetime.start.p0(i64 8, ptr %24) #9
  %108 = getelementptr inbounds nuw %struct.pointf_s, ptr %22, i32 0, i32 1
  %109 = load double, ptr %108, align 8, !tbaa !58
  %110 = getelementptr inbounds nuw %struct.pointf_s, ptr %22, i32 0, i32 0
  %111 = load double, ptr %110, align 8, !tbaa !57
  %112 = getelementptr inbounds nuw %struct.pointf_s, ptr %22, i32 0, i32 1
  %113 = load double, ptr %112, align 8, !tbaa !58
  %114 = call double @hypot(double noundef %111, double noundef %113) #9, !tbaa !10
  %115 = fdiv double %109, %114
  store double %115, ptr %24, align 8, !tbaa !53
  call void @llvm.lifetime.start.p0(i64 16, ptr %25) #9
  %116 = getelementptr inbounds nuw %struct.pointf_s, ptr %25, i32 0, i32 0
  %117 = load double, ptr %21, align 8, !tbaa !53
  %118 = load double, ptr %23, align 8, !tbaa !53
  %119 = fmul double %117, %118
  store double %119, ptr %116, align 8, !tbaa !57
  %120 = getelementptr inbounds nuw %struct.pointf_s, ptr %25, i32 0, i32 1
  %121 = load double, ptr %21, align 8, !tbaa !53
  %122 = load double, ptr %24, align 8, !tbaa !53
  %123 = fmul double %121, %122
  store double %123, ptr %120, align 8, !tbaa !58
  call void @llvm.lifetime.start.p0(i64 16, ptr %26) #9
  %124 = getelementptr inbounds nuw { double, double }, ptr %10, i32 0, i32 0
  %125 = load double, ptr %124, align 8
  %126 = getelementptr inbounds nuw { double, double }, ptr %10, i32 0, i32 1
  %127 = load double, ptr %126, align 8
  %128 = getelementptr inbounds nuw { double, double }, ptr %25, i32 0, i32 0
  %129 = load double, ptr %128, align 8
  %130 = getelementptr inbounds nuw { double, double }, ptr %25, i32 0, i32 1
  %131 = load double, ptr %130, align 8
  %132 = call { double, double } @sub_pointf(double %125, double %127, double %129, double %131)
  %133 = getelementptr inbounds nuw { double, double }, ptr %26, i32 0, i32 0
  %134 = extractvalue { double, double } %132, 0
  store double %134, ptr %133, align 8
  %135 = getelementptr inbounds nuw { double, double }, ptr %26, i32 0, i32 1
  %136 = extractvalue { double, double } %132, 1
  store double %136, ptr %135, align 8
  call void @llvm.memcpy.p0.p0.i64(ptr align 8 %10, ptr align 8 %26, i64 16, i1 false), !tbaa.struct !56
  call void @llvm.lifetime.end.p0(i64 16, ptr %26) #9
  call void @llvm.lifetime.start.p0(i64 16, ptr %27) #9
  %137 = getelementptr inbounds nuw { double, double }, ptr %16, i32 0, i32 0
  %138 = load double, ptr %137, align 8
  %139 = getelementptr inbounds nuw { double, double }, ptr %16, i32 0, i32 1
  %140 = load double, ptr %139, align 8
  %141 = getelementptr inbounds nuw { double, double }, ptr %25, i32 0, i32 0
  %142 = load double, ptr %141, align 8
  %143 = getelementptr inbounds nuw { double, double }, ptr %25, i32 0, i32 1
  %144 = load double, ptr %143, align 8
  %145 = call { double, double } @sub_pointf(double %138, double %140, double %142, double %144)
  %146 = getelementptr inbounds nuw { double, double }, ptr %27, i32 0, i32 0
  %147 = extractvalue { double, double } %145, 0
  store double %147, ptr %146, align 8
  %148 = getelementptr inbounds nuw { double, double }, ptr %27, i32 0, i32 1
  %149 = extractvalue { double, double } %145, 1
  store double %149, ptr %148, align 8
  call void @llvm.memcpy.p0.p0.i64(ptr align 8 %16, ptr align 8 %27, i64 16, i1 false), !tbaa.struct !56
  call void @llvm.lifetime.end.p0(i64 16, ptr %27) #9
  call void @llvm.lifetime.start.p0(i64 16, ptr %28) #9
  %150 = getelementptr inbounds nuw { double, double }, ptr %17, i32 0, i32 0
  %151 = load double, ptr %150, align 8
  %152 = getelementptr inbounds nuw { double, double }, ptr %17, i32 0, i32 1
  %153 = load double, ptr %152, align 8
  %154 = getelementptr inbounds nuw { double, double }, ptr %25, i32 0, i32 0
  %155 = load double, ptr %154, align 8
  %156 = getelementptr inbounds nuw { double, double }, ptr %25, i32 0, i32 1
  %157 = load double, ptr %156, align 8
  %158 = call { double, double } @sub_pointf(double %151, double %153, double %155, double %157)
  %159 = getelementptr inbounds nuw { double, double }, ptr %28, i32 0, i32 0
  %160 = extractvalue { double, double } %158, 0
  store double %160, ptr %159, align 8
  %161 = getelementptr inbounds nuw { double, double }, ptr %28, i32 0, i32 1
  %162 = extractvalue { double, double } %158, 1
  store double %162, ptr %161, align 8
  call void @llvm.memcpy.p0.p0.i64(ptr align 8 %17, ptr align 8 %28, i64 16, i1 false), !tbaa.struct !56
  call void @llvm.lifetime.end.p0(i64 16, ptr %28) #9
  call void @llvm.lifetime.start.p0(i64 16, ptr %29) #9
  %163 = getelementptr inbounds nuw { double, double }, ptr %9, i32 0, i32 0
  %164 = load double, ptr %163, align 8
  %165 = getelementptr inbounds nuw { double, double }, ptr %9, i32 0, i32 1
  %166 = load double, ptr %165, align 8
  %167 = getelementptr inbounds nuw { double, double }, ptr %25, i32 0, i32 0
  %168 = load double, ptr %167, align 8
  %169 = getelementptr inbounds nuw { double, double }, ptr %25, i32 0, i32 1
  %170 = load double, ptr %169, align 8
  %171 = call { double, double } @sub_pointf(double %164, double %166, double %168, double %170)
  %172 = getelementptr inbounds nuw { double, double }, ptr %29, i32 0, i32 0
  %173 = extractvalue { double, double } %171, 0
  store double %173, ptr %172, align 8
  %174 = getelementptr inbounds nuw { double, double }, ptr %29, i32 0, i32 1
  %175 = extractvalue { double, double } %171, 1
  store double %175, ptr %174, align 8
  call void @llvm.memcpy.p0.p0.i64(ptr align 8 %9, ptr align 8 %29, i64 16, i1 false), !tbaa.struct !56
  call void @llvm.lifetime.end.p0(i64 16, ptr %29) #9
  call void @llvm.lifetime.end.p0(i64 16, ptr %25) #9
  call void @llvm.lifetime.end.p0(i64 8, ptr %24) #9
  call void @llvm.lifetime.end.p0(i64 8, ptr %23) #9
  call void @llvm.lifetime.end.p0(i64 16, ptr %22) #9
  br label %176

176:                                              ; preds = %91, %88, %8
  %177 = getelementptr inbounds nuw %struct.pointf_s, ptr %16, i32 0, i32 0
  %178 = load double, ptr %177, align 8, !tbaa !57
  %179 = getelementptr inbounds nuw %struct.pointf_s, ptr %18, i32 0, i32 0
  %180 = load double, ptr %179, align 8, !tbaa !57
  %181 = fadd double %178, %180
  %182 = getelementptr inbounds [4 x %struct.pointf_s], ptr %19, i64 0, i64 0
  %183 = getelementptr inbounds nuw %struct.pointf_s, ptr %182, i32 0, i32 0
  store double %181, ptr %183, align 16, !tbaa !57
  %184 = getelementptr inbounds nuw %struct.pointf_s, ptr %16, i32 0, i32 1
  %185 = load double, ptr %184, align 8, !tbaa !58
  %186 = getelementptr inbounds nuw %struct.pointf_s, ptr %18, i32 0, i32 1
  %187 = load double, ptr %186, align 8, !tbaa !58
  %188 = fadd double %185, %187
  %189 = getelementptr inbounds [4 x %struct.pointf_s], ptr %19, i64 0, i64 0
  %190 = getelementptr inbounds nuw %struct.pointf_s, ptr %189, i32 0, i32 1
  store double %188, ptr %190, align 8, !tbaa !58
  %191 = getelementptr inbounds nuw %struct.pointf_s, ptr %16, i32 0, i32 0
  %192 = load double, ptr %191, align 8, !tbaa !57
  %193 = getelementptr inbounds nuw %struct.pointf_s, ptr %18, i32 0, i32 0
  %194 = load double, ptr %193, align 8, !tbaa !57
  %195 = fsub double %192, %194
  %196 = getelementptr inbounds [4 x %struct.pointf_s], ptr %19, i64 0, i64 1
  %197 = getelementptr inbounds nuw %struct.pointf_s, ptr %196, i32 0, i32 0
  store double %195, ptr %197, align 16, !tbaa !57
  %198 = getelementptr inbounds nuw %struct.pointf_s, ptr %16, i32 0, i32 1
  %199 = load double, ptr %198, align 8, !tbaa !58
  %200 = getelementptr inbounds nuw %struct.pointf_s, ptr %18, i32 0, i32 1
  %201 = load double, ptr %200, align 8, !tbaa !58
  %202 = fsub double %199, %201
  %203 = getelementptr inbounds [4 x %struct.pointf_s], ptr %19, i64 0, i64 1
  %204 = getelementptr inbounds nuw %struct.pointf_s, ptr %203, i32 0, i32 1
  store double %202, ptr %204, align 8, !tbaa !58
  %205 = getelementptr inbounds nuw %struct.pointf_s, ptr %17, i32 0, i32 0
  %206 = load double, ptr %205, align 8, !tbaa !57
  %207 = getelementptr inbounds nuw %struct.pointf_s, ptr %18, i32 0, i32 0
  %208 = load double, ptr %207, align 8, !tbaa !57
  %209 = fsub double %206, %208
  %210 = getelementptr inbounds [4 x %struct.pointf_s], ptr %19, i64 0, i64 2
  %211 = getelementptr inbounds nuw %struct.pointf_s, ptr %210, i32 0, i32 0
  store double %209, ptr %211, align 16, !tbaa !57
  %212 = getelementptr inbounds nuw %struct.pointf_s, ptr %17, i32 0, i32 1
  %213 = load double, ptr %212, align 8, !tbaa !58
  %214 = getelementptr inbounds nuw %struct.pointf_s, ptr %18, i32 0, i32 1
  %215 = load double, ptr %214, align 8, !tbaa !58
  %216 = fsub double %213, %215
  %217 = getelementptr inbounds [4 x %struct.pointf_s], ptr %19, i64 0, i64 2
  %218 = getelementptr inbounds nuw %struct.pointf_s, ptr %217, i32 0, i32 1
  store double %216, ptr %218, align 8, !tbaa !58
  %219 = getelementptr inbounds nuw %struct.pointf_s, ptr %17, i32 0, i32 0
  %220 = load double, ptr %219, align 8, !tbaa !57
  %221 = getelementptr inbounds nuw %struct.pointf_s, ptr %18, i32 0, i32 0
  %222 = load double, ptr %221, align 8, !tbaa !57
  %223 = fadd double %220, %222
  %224 = getelementptr inbounds [4 x %struct.pointf_s], ptr %19, i64 0, i64 3
  %225 = getelementptr inbounds nuw %struct.pointf_s, ptr %224, i32 0, i32 0
  store double %223, ptr %225, align 16, !tbaa !57
  %226 = getelementptr inbounds nuw %struct.pointf_s, ptr %17, i32 0, i32 1
  %227 = load double, ptr %226, align 8, !tbaa !58
  %228 = getelementptr inbounds nuw %struct.pointf_s, ptr %18, i32 0, i32 1
  %229 = load double, ptr %228, align 8, !tbaa !58
  %230 = fadd double %227, %229
  %231 = getelementptr inbounds [4 x %struct.pointf_s], ptr %19, i64 0, i64 3
  %232 = getelementptr inbounds nuw %struct.pointf_s, ptr %231, i32 0, i32 1
  store double %230, ptr %232, align 8, !tbaa !58
  %233 = load i32, ptr %15, align 4, !tbaa !10
  %234 = and i32 %233, 64
  %235 = icmp ne i32 %234, 0
  br i1 %235, label %236, label %239

236:                                              ; preds = %176
  %237 = getelementptr inbounds [4 x %struct.pointf_s], ptr %19, i64 0, i64 0
  call void @llvm.memcpy.p0.p0.i64(ptr align 16 %237, ptr align 8 %16, i64 16, i1 false), !tbaa.struct !56
  %238 = getelementptr inbounds [4 x %struct.pointf_s], ptr %19, i64 0, i64 3
  call void @llvm.memcpy.p0.p0.i64(ptr align 16 %238, ptr align 8 %17, i64 16, i1 false), !tbaa.struct !56
  br label %247

239:                                              ; preds = %176
  %240 = load i32, ptr %15, align 4, !tbaa !10
  %241 = and i32 %240, 128
  %242 = icmp ne i32 %241, 0
  br i1 %242, label %243, label %246

243:                                              ; preds = %239
  %244 = getelementptr inbounds [4 x %struct.pointf_s], ptr %19, i64 0, i64 1
  call void @llvm.memcpy.p0.p0.i64(ptr align 16 %244, ptr align 8 %16, i64 16, i1 false), !tbaa.struct !56
  %245 = getelementptr inbounds [4 x %struct.pointf_s], ptr %19, i64 0, i64 2
  call void @llvm.memcpy.p0.p0.i64(ptr align 16 %245, ptr align 8 %17, i64 16, i1 false), !tbaa.struct !56
  br label %246

246:                                              ; preds = %243, %239
  br label %247

247:                                              ; preds = %246, %236
  %248 = load ptr, ptr %12, align 8, !tbaa !73
  %249 = getelementptr inbounds [4 x %struct.pointf_s], ptr %19, i64 0, i64 0
  call void @gvrender_polygon(ptr noundef %248, ptr noundef %249, i64 noundef 4, i32 noundef 1)
  %250 = getelementptr inbounds [4 x %struct.pointf_s], ptr %19, i64 0, i64 0
  call void @llvm.memcpy.p0.p0.i64(ptr align 16 %250, ptr align 8 %10, i64 16, i1 false), !tbaa.struct !56
  %251 = getelementptr inbounds [4 x %struct.pointf_s], ptr %19, i64 0, i64 1
  call void @llvm.memcpy.p0.p0.i64(ptr align 16 %251, ptr align 8 %9, i64 16, i1 false), !tbaa.struct !56
  %252 = load ptr, ptr %12, align 8, !tbaa !73
  %253 = getelementptr inbounds [4 x %struct.pointf_s], ptr %19, i64 0, i64 0
  call void @gvrender_polyline(ptr noundef %252, ptr noundef %253, i64 noundef 2)
  call void @llvm.lifetime.end.p0(i64 8, ptr %21) #9
  call void @llvm.lifetime.end.p0(i64 8, ptr %20) #9
  call void @llvm.lifetime.end.p0(i64 64, ptr %19) #9
  call void @llvm.lifetime.end.p0(i64 16, ptr %18) #9
  call void @llvm.lifetime.end.p0(i64 16, ptr %17) #9
  call void @llvm.lifetime.end.p0(i64 16, ptr %16) #9
  %254 = load { double, double }, ptr %9, align 8
  ret { double, double } %254
}