; Function Attrs: nounwind uwtable
define internal { double, double } @arrow_type_tee(ptr noundef %0, double %1, double %2, double %3, double %4, double %5, double noundef %6, i32 noundef %7) #0 {
  %9 = alloca [4 x %struct.pointf_s], align 16
  call void @llvm.lifetime.start.p0(i64 64, ptr nonnull %9) #12
  %10 = fadd double %1, %3
  %11 = fadd double %2, %4
  %12 = tail call double @llvm.fmuladd.f64(double %3, double 2.000000e-01, double %1)
  %13 = tail call double @llvm.fmuladd.f64(double %4, double 2.000000e-01, double %2)
  %14 = tail call double @llvm.fmuladd.f64(double %3, double 6.000000e-01, double %1)
  %15 = tail call double @llvm.fmuladd.f64(double %4, double 6.000000e-01, double %2)
  %16 = tail call double @hypot(double noundef %3, double noundef %4) #12, !tbaa !3
  %17 = fmul double %6, 5.000000e-01
  %18 = tail call double @llvm.fmuladd.f64(double %16, double -2.000000e-01, double %17)
  %19 = fcmp ogt double %16, 0.000000e+00
  %20 = fcmp ogt double %18, 0.000000e+00
  %or.cond = and i1 %19, %20
  br i1 %or.cond, label %21, label %38

21:                                               ; preds = %8
  %22 = fneg double %4
  %23 = fneg double %3
  %24 = tail call double @hypot(double noundef %23, double noundef %22) #12, !tbaa !3
  %25 = fdiv double %23, %24
  %26 = tail call double @hypot(double noundef %23, double noundef %22) #12, !tbaa !3
  %27 = fdiv double %22, %26
  %28 = fmul double %18, %25
  %29 = fmul double %18, %27
  %30 = fsub double %1, %28
  %31 = fsub double %2, %29
  %32 = fsub double %12, %28
  %33 = fsub double %13, %29
  %34 = fsub double %14, %28
  %35 = fsub double %15, %29
  %36 = fsub double %10, %28
  %37 = fsub double %11, %29
  br label %38

38:                                               ; preds = %21, %8
  %.sroa.034.0 = phi double [ %34, %21 ], [ %14, %8 ]
  %.sroa.9.0 = phi double [ %35, %21 ], [ %15, %8 ]
  %.sroa.042.0 = phi double [ %32, %21 ], [ %12, %8 ]
  %.sroa.946.0 = phi double [ %33, %21 ], [ %13, %8 ]
  %.sroa.067.0 = phi double [ %30, %21 ], [ %1, %8 ]
  %.sroa.771.0 = phi double [ %31, %21 ], [ %2, %8 ]
  %.sroa.075.0 = phi double [ %36, %21 ], [ %10, %8 ]
  %.sroa.5.0 = phi double [ %37, %21 ], [ %11, %8 ]
  %39 = fsub double %.sroa.042.0, %4
  store double %39, ptr %9, align 16, !tbaa !59
  %40 = fadd double %3, %.sroa.946.0
  %41 = getelementptr inbounds nuw i8, ptr %9, i64 8
  store double %40, ptr %41, align 8, !tbaa !60
  %42 = fadd double %4, %.sroa.042.0
  %43 = getelementptr inbounds nuw i8, ptr %9, i64 16
  store double %42, ptr %43, align 16, !tbaa !59
  %44 = fsub double %.sroa.946.0, %3
  %45 = getelementptr inbounds nuw i8, ptr %9, i64 24
  store double %44, ptr %45, align 8, !tbaa !60
  %46 = fadd double %4, %.sroa.034.0
  %47 = getelementptr inbounds nuw i8, ptr %9, i64 32
  store double %46, ptr %47, align 16, !tbaa !59
  %48 = fsub double %.sroa.9.0, %3
  %49 = getelementptr inbounds nuw i8, ptr %9, i64 40
  store double %48, ptr %49, align 8, !tbaa !60
  %50 = fsub double %.sroa.034.0, %4
  %51 = getelementptr inbounds nuw i8, ptr %9, i64 48
  store double %50, ptr %51, align 16, !tbaa !59
  %52 = fadd double %3, %.sroa.9.0
  %53 = getelementptr inbounds nuw i8, ptr %9, i64 56
  store double %52, ptr %53, align 8, !tbaa !60
  %54 = and i32 %7, 64
  %.not = icmp eq i32 %54, 0
  br i1 %.not, label %56, label %55

55:                                               ; preds = %38
  store double %.sroa.042.0, ptr %9, align 16, !tbaa !55
  store double %.sroa.946.0, ptr %41, align 8, !tbaa !55
  store double %.sroa.034.0, ptr %51, align 16, !tbaa !55
  store double %.sroa.9.0, ptr %53, align 8, !tbaa !55
  br label %59

56:                                               ; preds = %38
  %57 = and i32 %7, 128
  %.not76 = icmp eq i32 %57, 0
  br i1 %.not76, label %59, label %58

58:                                               ; preds = %56
  store double %.sroa.042.0, ptr %43, align 16, !tbaa !55
  store double %.sroa.946.0, ptr %45, align 8, !tbaa !55
  store double %.sroa.034.0, ptr %47, align 16, !tbaa !55
  store double %.sroa.9.0, ptr %49, align 8, !tbaa !55
  br label %59

59:                                               ; preds = %56, %58, %55
  call void @gvrender_polygon(ptr noundef %0, ptr noundef nonnull %9, i64 noundef 4, i32 noundef 1) #12
  store double %.sroa.067.0, ptr %9, align 16, !tbaa !55
  store double %.sroa.771.0, ptr %41, align 8, !tbaa !55
  store double %.sroa.075.0, ptr %43, align 16, !tbaa !55
  store double %.sroa.5.0, ptr %45, align 8, !tbaa !55
  call void @gvrender_polyline(ptr noundef %0, ptr noundef nonnull %9, i64 noundef 2) #12
  call void @llvm.lifetime.end.p0(i64 64, ptr nonnull %9) #12
  %.fca.0.insert = insertvalue { double, double } poison, double %.sroa.075.0, 0
  %.fca.1.insert = insertvalue { double, double } %.fca.0.insert, double %.sroa.5.0, 1
  ret { double, double } %.fca.1.insert
}